target datalayout = "e-m:e-p270:32:32-p271:32:32-p272:64:64-i64:64-i128:128-f80:128-n8:16:32:64-S128"
target triple = "x86_64-pc-linux-gnu"

@_ZN11JvmtiExport38_should_post_garbage_collection_finishE = hidden global i8 0, align 1
@_ZN12JvmtiEnvBase17_head_environmentE = external global ptr, align 8

; Function Attrs: mustprogress nounwind uwtable
define linkonce_odr hidden noundef ptr @_ZN12JvmtiEnvBase16head_environmentEv() #1 comdat align 2 {
  %1 = load ptr, ptr @_ZN12JvmtiEnvBase17_head_environmentE, align 8
  ret ptr %1
}

; Function Attrs: mustprogress nounwind uwtable
define linkonce_odr hidden noundef zeroext i1 @_ZN11JvmtiExport37should_post_garbage_collection_finishEv() #1 comdat align 2 {
  %1 = load i8, ptr @_ZN11JvmtiExport38_should_post_garbage_collection_finishE, align 1
  %2 = trunc i8 %1 to i1
  ret i1 %2
}

; Function Attrs: mustprogress nounwind uwtable
define linkonce_odr hidden noundef zeroext i1 @_ZN12JvmtiEnvBase24environments_might_existEv() #1 comdat align 2 {
  %1 = call noundef ptr @_ZN12JvmtiEnvBase16head_environmentEv()
  %2 = icmp ne ptr %1, null
  ret i1 %2
}

; Function Attrs: mustprogress nounwind uwtable
define hidden void @_ZN13JvmtiGCMarkerD2Ev(ptr noundef nonnull align 1 dereferenceable(1) %0) unnamed_addr #1 align 2 {
  %2 = alloca ptr, align 8
  store ptr %0, ptr %2, align 8
  %3 = call noundef zeroext i1 @_ZN12JvmtiEnvBase24environments_might_existEv()
  br i1 %3, label %5, label %4

4:                                                ; preds = %1
  br label %8

5:                                                ; preds = %1
  %6 = call noundef zeroext i1 @_ZN11JvmtiExport37should_post_garbage_collection_finishEv()
  br i1 %6, label %7, label %8

7:                                                ; preds = %5
  call void @_ZN11JvmtiExport30post_garbage_collection_finishEv()
  br label %8

8:                                                ; preds = %7, %5, %4
  ret void
}