; Function Attrs: mustprogress nounwind uwtable
define hidden void @_ZN13JvmtiGCMarkerD2Ev(ptr nocapture nonnull readnone align 1 %0) unnamed_addr #1 align 2 {
  %2 = load ptr, ptr @_ZN12JvmtiEnvBase17_head_environmentE, align 8
  %.not = icmp eq ptr %2, null
  br i1 %.not, label %7, label %3

3:                                                ; preds = %1
  %4 = load i8, ptr @_ZN11JvmtiExport38_should_post_garbage_collection_finishE, align 1
  %5 = trunc i8 %4 to i1
  br i1 %5, label %6, label %7

6:                                                ; preds = %3
  tail call void @_ZN11JvmtiExport30post_garbage_collection_finishEv()
  br label %7

7:                                                ; preds = %1, %6, %3
  ret void
}